target datalayout = "e-m:e-p270:32:32-p271:32:32-p272:64:64-i64:64-i128:128-f80:128-n8:16:32:64-S128"
target triple = "x86_64-pc-linux-gnu"

%struct.SDL_GPUDevice = type { ptr, ptr, ptr, ptr, ptr, ptr, ptr, ptr, ptr, ptr, ptr, ptr, ptr, ptr, ptr, ptr, ptr, ptr, ptr, ptr, ptr, ptr, ptr, ptr, ptr, ptr, ptr, ptr, ptr, ptr, ptr, ptr, ptr, ptr, ptr, ptr, ptr, ptr, ptr, ptr, ptr, ptr, ptr, ptr, ptr, ptr, ptr, ptr, ptr, ptr, ptr, ptr, ptr, ptr, ptr, ptr, ptr, ptr, ptr, ptr, ptr, ptr, ptr, ptr, ptr, ptr, ptr, ptr, ptr, ptr, ptr, ptr, ptr, ptr, ptr, ptr, ptr, ptr, ptr, ptr, ptr, ptr, ptr, ptr, ptr, i32, i8 }
%struct.CommandBufferCommonHeader = type { ptr, %struct.RenderPass, i8, %struct.Pass, i8, %struct.Pass, i8, i8, i8 }
%struct.RenderPass = type { ptr, i8, [4 x ptr], i32, ptr }
%struct.Pass = type { ptr, i8 }

@.str.4 = private unnamed_addr constant [26 x i8] c"Parameter '%s' is invalid\00", align 1
@.str.8 = private unnamed_addr constant [103 x i8] c"generated/home/dtcxzyw/WorkSpace/Projects/compilers/llvm-opt-benchmark/bench/sdl/SDL/src/gpu/SDL_gpu.c\00", align 1
@.str.274 = private unnamed_addr constant [13 x i8] c"compute_pass\00", align 1
@SDL_EndGPUComputePass_REAL.sdl_assert_data = internal global { i8, [3 x i8], i32, ptr, ptr, i32, [4 x i8], ptr, ptr } { i8 0, [3 x i8] zeroinitializer, i32 0, ptr @.str.277, ptr null, i32 0, [4 x i8] zeroinitializer, ptr null, ptr null }, align 8
@__func__.SDL_EndGPUComputePass_REAL = private unnamed_addr constant [27 x i8] c"SDL_EndGPUComputePass_REAL\00", align 1

; Function Attrs: nounwind uwtable
define hidden void @SDL_EndGPUComputePass_REAL(ptr noundef %0) #0 {
  %2 = alloca ptr, align 8
  %3 = alloca ptr, align 8
  %4 = alloca i32, align 4
  %5 = alloca i32, align 4
  store ptr %0, ptr %2, align 8
  call void @llvm.lifetime.start.p0(i64 8, ptr %3) #6
  %6 = load ptr, ptr %2, align 8
  %7 = icmp eq ptr %6, null
  br i1 %7, label %8, label %10

8:                                                ; preds = %1
  %9 = call zeroext i1 (ptr, ...) @SDL_SetError_REAL(ptr noundef @.str.4, ptr noundef @.str.274)
  store i32 1, ptr %4, align 4
  br label %63

10:                                               ; preds = %1
  %11 = load ptr, ptr %2, align 8
  %12 = getelementptr inbounds nuw %struct.Pass, ptr %11, i32 0, i32 0
  %13 = load ptr, ptr %12, align 8
  %14 = getelementptr inbounds nuw %struct.CommandBufferCommonHeader, ptr %13, i32 0, i32 0
  %15 = load ptr, ptr %14, align 8
  %16 = getelementptr inbounds nuw %struct.SDL_GPUDevice, ptr %15, i32 0, i32 86
  %17 = load i8, ptr %16, align 4, !range !5, !noundef !6
  %18 = trunc i8 %17 to i1
  br i1 %18, label %19, label %44

19:                                               ; preds = %10
  %20 = load ptr, ptr %2, align 8
  %21 = getelementptr inbounds nuw %struct.Pass, ptr %20, i32 0, i32 1
  %22 = load i8, ptr %21, align 8, !range !5, !noundef !6
  %23 = trunc i8 %22 to i1
  br i1 %23, label %43, label %24

24:                                               ; preds = %19
  br label %25

25:                                               ; preds = %24
  br label %26

26:                                               ; preds = %38, %25
  br label %27

27:                                               ; preds = %26
  call void @llvm.lifetime.start.p0(i64 4, ptr %5) #6
  %28 = call i32 @SDL_ReportAssertion_REAL(ptr noundef @SDL_EndGPUComputePass_REAL.sdl_assert_data, ptr noundef @__func__.SDL_EndGPUComputePass_REAL, ptr noundef @.str.8, i32 noundef 2378)
  store i32 %28, ptr %5, align 4
  %29 = load i32, ptr %5, align 4
  %30 = icmp eq i32 %29, 0
  br i1 %30, label %31, label %32

31:                                               ; preds = %27
  store i32 4, ptr %4, align 4
  br label %38

32:                                               ; preds = %27
  %33 = load i32, ptr %5, align 4
  %34 = icmp eq i32 %33, 1
  br i1 %34, label %35, label %36

35:                                               ; preds = %32
  call void @llvm.debugtrap()
  br label %36

36:                                               ; preds = %35, %32
  br label %37

37:                                               ; preds = %36
  store i32 5, ptr %4, align 4
  br label %38

38:                                               ; preds = %37, %31
  call void @llvm.lifetime.end.p0(i64 4, ptr %5) #6
  %39 = load i32, ptr %4, align 4
  switch i32 %39, label %66 [
    i32 4, label %26
    i32 5, label %40
  ]

40:                                               ; preds = %38
  br label %41

41:                                               ; preds = %40
  br label %42

42:                                               ; preds = %41
  store i32 1, ptr %4, align 4
  br label %63

43:                                               ; preds = %19
  br label %44

44:                                               ; preds = %43, %10
  %45 = load ptr, ptr %2, align 8
  %46 = getelementptr inbounds nuw %struct.Pass, ptr %45, i32 0, i32 0
  %47 = load ptr, ptr %46, align 8
  %48 = getelementptr inbounds nuw %struct.CommandBufferCommonHeader, ptr %47, i32 0, i32 0
  %49 = load ptr, ptr %48, align 8
  %50 = getelementptr inbounds nuw %struct.SDL_GPUDevice, ptr %49, i32 0, i32 50
  %51 = load ptr, ptr %50, align 8
  %52 = load ptr, ptr %2, align 8
  %53 = getelementptr inbounds nuw %struct.Pass, ptr %52, i32 0, i32 0
  %54 = load ptr, ptr %53, align 8
  call void %51(ptr noundef %54)
  %55 = load ptr, ptr %2, align 8
  %56 = getelementptr inbounds nuw %struct.Pass, ptr %55, i32 0, i32 0
  %57 = load ptr, ptr %56, align 8
  store ptr %57, ptr %3, align 8
  %58 = load ptr, ptr %3, align 8
  %59 = getelementptr inbounds nuw %struct.CommandBufferCommonHeader, ptr %58, i32 0, i32 3
  %60 = getelementptr inbounds nuw %struct.Pass, ptr %59, i32 0, i32 1
  store i8 0, ptr %60, align 8
  %61 = load ptr, ptr %3, align 8
  %62 = getelementptr inbounds nuw %struct.CommandBufferCommonHeader, ptr %61, i32 0, i32 4
  store i8 0, ptr %62, align 8
  store i32 0, ptr %4, align 4
  br label %63

63:                                               ; preds = %44, %42, %8
  call void @llvm.lifetime.end.p0(i64 8, ptr %3) #6
  %64 = load i32, ptr %4, align 4
  switch i32 %64, label %66 [
    i32 0, label %65
    i32 1, label %65
  ]

65:                                               ; preds = %63, %63
  ret void

66:                                               ; preds = %63, %38
  unreachable
}