; Function Attrs: nounwind uwtable
define hidden void @SDL_EndGPUComputePass_REAL(ptr noundef readonly captures(address_is_null) %0) local_unnamed_addr #0 {
  %2 = icmp eq ptr %0, null
  br i1 %2, label %3, label %5

3:                                                ; preds = %1
  %4 = tail call zeroext i1 (ptr, ...) @SDL_SetError_REAL(ptr noundef nonnull @.str.4, ptr noundef nonnull @.str.274) #7
  br label %.thread

5:                                                ; preds = %1
  %6 = load ptr, ptr %0, align 8
  %7 = load ptr, ptr %6, align 8
  %8 = getelementptr inbounds nuw i8, ptr %7, i64 684
  %9 = load i8, ptr %8, align 4, !range !5, !noundef !6
  %10 = trunc nuw i8 %9 to i1
  br i1 %10, label %11, label %17

11:                                               ; preds = %5
  %12 = getelementptr inbounds nuw i8, ptr %0, i64 8
  %13 = load i8, ptr %12, align 8, !range !5, !noundef !6
  %14 = trunc nuw i8 %13 to i1
  br i1 %14, label %17, label %.preheader

.preheader:                                       ; preds = %11, %.preheader
  %15 = tail call i32 @SDL_ReportAssertion_REAL(ptr noundef nonnull @SDL_EndGPUComputePass_REAL.sdl_assert_data, ptr noundef nonnull @__func__.SDL_EndGPUComputePass_REAL, ptr noundef nonnull @.str.8, i32 noundef 2378) #7
  switch i32 %15, label %.thread [
    i32 0, label %.preheader
    i32 1, label %16
  ]

16:                                               ; preds = %.preheader
  tail call void @llvm.debugtrap()
  br label %.thread

17:                                               ; preds = %11, %5
  %18 = getelementptr inbounds nuw i8, ptr %7, i64 400
  %19 = load ptr, ptr %18, align 8
  tail call void %19(ptr noundef nonnull %6) #7
  %20 = load ptr, ptr %0, align 8
  %21 = getelementptr inbounds nuw i8, ptr %20, i64 88
  store i8 0, ptr %21, align 8
  %22 = getelementptr inbounds nuw i8, ptr %20, i64 96
  store i8 0, ptr %22, align 8
  br label %.thread

.thread:                                          ; preds = %.preheader, %16, %17, %3
  ret void
}